; Function Attrs: mustprogress nofree norecurse nosync nounwind willreturn memory(write, argmem: readwrite, inaccessiblemem: none) uwtable
define noundef ptr @_ZNK4YAML7Emitter5c_strEv(ptr noundef nonnull readonly align 8 captures(none) dereferenceable(72) %0) local_unnamed_addr #6 align 2 {
  %2 = getelementptr inbounds nuw i8, ptr %0, i64 32
  %3 = load ptr, ptr %2, align 8, !tbaa !8
  %.not.i = icmp eq ptr %3, null
  br i1 %.not.i, label %4, label %_ZNK4YAML15ostream_wrapper3strEv.exit

4:                                                ; preds = %1
  %5 = getelementptr inbounds nuw i8, ptr %0, i64 8
  %6 = getelementptr inbounds nuw i8, ptr %0, i64 40
  %7 = load i64, ptr %6, align 8, !tbaa !18
  %8 = load ptr, ptr %5, align 8, !tbaa !19
  %9 = getelementptr inbounds nuw i8, ptr %8, i64 %7
  store i8 0, ptr %9, align 1, !tbaa !20
  %10 = load ptr, ptr %5, align 8, !tbaa !19
  br label %_ZNK4YAML15ostream_wrapper3strEv.exit

_ZNK4YAML15ostream_wrapper3strEv.exit:            ; preds = %1, %4
  %.0.i = phi ptr [ %10, %4 ], [ null, %1 ]
  ret ptr %.0.i
}